ARM GAS  C:\Users\Dmitriy\AppData\Local\Temp\ccQsVAxh.s 			page 1


   1              		.cpu cortex-m3
   2              		.arch armv7-m
   3              		.fpu softvfp
   4              		.eabi_attribute 20, 1
   5              		.eabi_attribute 21, 1
   6              		.eabi_attribute 23, 3
   7              		.eabi_attribute 24, 1
   8              		.eabi_attribute 25, 1
   9              		.eabi_attribute 26, 1
  10              		.eabi_attribute 30, 1
  11              		.eabi_attribute 34, 1
  12              		.eabi_attribute 18, 4
  13              		.file	"init.c"
  14              		.text
  15              	.Ltext0:
  16              		.cfi_sections	.debug_frame
  17              		.file 1 "Core/Src/init.c"
  18              		.section	.text.Init_RCC,"ax",%progbits
  19              		.align	1
  20              		.global	Init_RCC
  21              		.syntax unified
  22              		.thumb
  23              		.thumb_func
  25              	Init_RCC:
  26              	.LFB0:
   1:Core/Src/init.c **** #include "init.h"
   2:Core/Src/init.c **** 
   3:Core/Src/init.c **** // Определение глобальной переменной (только здесь)
   4:Core/Src/init.c **** uint8_t led1_current_state = 0;
   5:Core/Src/init.c **** 
   6:Core/Src/init.c **** void Init_RCC(void) {
  27              		.loc 1 6 21 view -0
  28              		.cfi_startproc
  29              		@ args = 0, pretend = 0, frame = 0
  30              		@ frame_needed = 0, uses_anonymous_args = 0
  31              		@ link register save eliminated.
   7:Core/Src/init.c ****     RCC->APB2ENR |= (1 << 2) | (1 << 4); // GPIOA + GPIOC
  32              		.loc 1 7 5 view .LVU1
  33              		.loc 1 7 8 is_stmt 0 view .LVU2
  34 0000 024A     		ldr	r2, .L2
  35 0002 9369     		ldr	r3, [r2, #24]
  36              		.loc 1 7 18 view .LVU3
  37 0004 43F01403 		orr	r3, r3, #20
  38 0008 9361     		str	r3, [r2, #24]
   8:Core/Src/init.c **** }
  39              		.loc 1 8 1 view .LVU4
  40 000a 7047     		bx	lr
  41              	.L3:
  42              		.align	2
  43              	.L2:
  44 000c 00100240 		.word	1073876992
  45              		.cfi_endproc
  46              	.LFE0:
  48              		.section	.text.Init_GPIO,"ax",%progbits
  49              		.align	1
  50              		.global	Init_GPIO
  51              		.syntax unified
ARM GAS  C:\Users\Dmitriy\AppData\Local\Temp\ccQsVAxh.s 			page 2


  52              		.thumb
  53              		.thumb_func
  55              	Init_GPIO:
  56              	.LFB1:
   9:Core/Src/init.c **** 
  10:Core/Src/init.c **** void Init_GPIO(void) {
  57              		.loc 1 10 22 is_stmt 1 view -0
  58              		.cfi_startproc
  59              		@ args = 0, pretend = 0, frame = 0
  60              		@ frame_needed = 0, uses_anonymous_args = 0
  61              		@ link register save eliminated.
  11:Core/Src/init.c ****     // PA3 (LED4) - прямое обращение к регистрам
  12:Core/Src/init.c ****     volatile uint32_t *GPIOA_CRL = (volatile uint32_t*)(0x40010800U + 0x00);
  62              		.loc 1 12 5 view .LVU6
  63              	.LVL0:
  13:Core/Src/init.c ****     *GPIOA_CRL = (*GPIOA_CRL & ~(0xF << 12)) | (0x3 << 12); // PA3 - OUTPUT 50MHz
  64              		.loc 1 13 5 view .LVU7
  65              		.loc 1 13 19 is_stmt 0 view .LVU8
  66 0000 164A     		ldr	r2, .L5
  67 0002 D2F80038 		ldr	r3, [r2, #2048]
  68              		.loc 1 13 30 view .LVU9
  69 0006 23F47043 		bic	r3, r3, #61440
  70              		.loc 1 13 46 view .LVU10
  71 000a 43F44053 		orr	r3, r3, #12288
  72              		.loc 1 13 16 view .LVU11
  73 000e C2F80038 		str	r3, [r2, #2048]
  14:Core/Src/init.c ****     
  15:Core/Src/init.c ****     // PA5, PA6 (LED2, LED3) - через макросы
  16:Core/Src/init.c ****     GPIOA->CRL = (GPIOA->CRL & ~(0xF << 20)) | (0x3 << 20); // PA5 - LED2  
  74              		.loc 1 16 5 is_stmt 1 view .LVU12
  75              		.loc 1 16 24 is_stmt 0 view .LVU13
  76 0012 02F50062 		add	r2, r2, #2048
  77 0016 1368     		ldr	r3, [r2]
  78              		.loc 1 16 30 view .LVU14
  79 0018 23F47003 		bic	r3, r3, #15728640
  80              		.loc 1 16 46 view .LVU15
  81 001c 43F44013 		orr	r3, r3, #3145728
  82              		.loc 1 16 16 view .LVU16
  83 0020 1360     		str	r3, [r2]
  17:Core/Src/init.c ****     GPIOA->CRL = (GPIOA->CRL & ~(0xF << 24)) | (0x3 << 24); // PA6 - LED3
  84              		.loc 1 17 5 is_stmt 1 view .LVU17
  85              		.loc 1 17 24 is_stmt 0 view .LVU18
  86 0022 1368     		ldr	r3, [r2]
  87              		.loc 1 17 30 view .LVU19
  88 0024 23F07063 		bic	r3, r3, #251658240
  89              		.loc 1 17 46 view .LVU20
  90 0028 43F04073 		orr	r3, r3, #50331648
  91              		.loc 1 17 16 view .LVU21
  92 002c 1360     		str	r3, [r2]
  18:Core/Src/init.c ****     
  19:Core/Src/init.c ****     // PC13 как вход с подтяжкой (Кнопка 1) - через макросы
  20:Core/Src/init.c ****     GPIOC->CRH = (GPIOC->CRH & ~(0xF << 20)) | (0x8 << 20);
  93              		.loc 1 20 5 is_stmt 1 view .LVU22
  94              		.loc 1 20 24 is_stmt 0 view .LVU23
  95 002e 0C4B     		ldr	r3, .L5+4
  96 0030 5A68     		ldr	r2, [r3, #4]
  97              		.loc 1 20 30 view .LVU24
ARM GAS  C:\Users\Dmitriy\AppData\Local\Temp\ccQsVAxh.s 			page 3


  98 0032 22F47002 		bic	r2, r2, #15728640
  99              		.loc 1 20 46 view .LVU25
 100 0036 42F40002 		orr	r2, r2, #8388608
 101              		.loc 1 20 16 view .LVU26
 102 003a 5A60     		str	r2, [r3, #4]
  21:Core/Src/init.c ****     GPIOC->ODR |= (1 << 13); 
 103              		.loc 1 21 5 is_stmt 1 view .LVU27
 104              		.loc 1 21 10 is_stmt 0 view .LVU28
 105 003c DA68     		ldr	r2, [r3, #12]
 106              		.loc 1 21 16 view .LVU29
 107 003e 42F40052 		orr	r2, r2, #8192
 108 0042 DA60     		str	r2, [r3, #12]
  22:Core/Src/init.c ****     
  23:Core/Src/init.c ****     // PC14 инициализируем как вход (режим будет меняться д
  24:Core/Src/init.c ****     GPIOC->CRH = (GPIOC->CRH & ~(0xF << 24)) | (0x8 << 24); // INPUT
 109              		.loc 1 24 5 is_stmt 1 view .LVU30
 110              		.loc 1 24 24 is_stmt 0 view .LVU31
 111 0044 5A68     		ldr	r2, [r3, #4]
 112              		.loc 1 24 30 view .LVU32
 113 0046 22F07062 		bic	r2, r2, #251658240
 114              		.loc 1 24 46 view .LVU33
 115 004a 42F00062 		orr	r2, r2, #134217728
 116              		.loc 1 24 16 view .LVU34
 117 004e 5A60     		str	r2, [r3, #4]
  25:Core/Src/init.c ****     GPIOC->ODR |= (1 << 14); // Подтяжка вверх
 118              		.loc 1 25 5 is_stmt 1 view .LVU35
 119              		.loc 1 25 10 is_stmt 0 view .LVU36
 120 0050 DA68     		ldr	r2, [r3, #12]
 121              		.loc 1 25 16 view .LVU37
 122 0052 42F48042 		orr	r2, r2, #16384
 123 0056 DA60     		str	r2, [r3, #12]
  26:Core/Src/init.c **** }
 124              		.loc 1 26 1 view .LVU38
 125 0058 7047     		bx	lr
 126              	.L6:
 127 005a 00BF     		.align	2
 128              	.L5:
 129 005c 00000140 		.word	1073807360
 130 0060 00100140 		.word	1073811456
 131              		.cfi_endproc
 132              	.LFE1:
 134              		.section	.text.delay,"ax",%progbits
 135              		.align	1
 136              		.global	delay
 137              		.syntax unified
 138              		.thumb
 139              		.thumb_func
 141              	delay:
 142              	.LVL1:
 143              	.LFB2:
  27:Core/Src/init.c **** 
  28:Core/Src/init.c **** void delay(uint32_t count) {
 144              		.loc 1 28 28 is_stmt 1 view -0
 145              		.cfi_startproc
 146              		@ args = 0, pretend = 0, frame = 8
 147              		@ frame_needed = 0, uses_anonymous_args = 0
 148              		@ link register save eliminated.
ARM GAS  C:\Users\Dmitriy\AppData\Local\Temp\ccQsVAxh.s 			page 4


 149              		.loc 1 28 28 is_stmt 0 view .LVU40
 150 0000 82B0     		sub	sp, sp, #8
 151              	.LCFI0:
 152              		.cfi_def_cfa_offset 8
  29:Core/Src/init.c ****     for(volatile uint32_t i = 0; i < count; i++);
 153              		.loc 1 29 5 is_stmt 1 view .LVU41
 154              	.LBB2:
 155              		.loc 1 29 9 view .LVU42
 156              		.loc 1 29 27 is_stmt 0 view .LVU43
 157 0002 0023     		movs	r3, #0
 158 0004 0193     		str	r3, [sp, #4]
 159              		.loc 1 29 5 view .LVU44
 160 0006 02E0     		b	.L8
 161              	.L9:
 162              		.loc 1 29 46 is_stmt 1 discriminator 3 view .LVU45
 163 0008 019B     		ldr	r3, [sp, #4]
 164 000a 0133     		adds	r3, r3, #1
 165 000c 0193     		str	r3, [sp, #4]
 166              	.L8:
 167              		.loc 1 29 36 discriminator 1 view .LVU46
 168 000e 019B     		ldr	r3, [sp, #4]
 169 0010 8342     		cmp	r3, r0
 170 0012 F9D3     		bcc	.L9
 171              	.LBE2:
  30:Core/Src/init.c **** }...
 172              		.loc 1 30 1 is_stmt 0 view .LVU47
 173 0014 02B0     		add	sp, sp, #8
 174              	.LCFI1:
 175              		.cfi_def_cfa_offset 0
 176              		@ sp needed
 177 0016 7047     		bx	lr
 178              		.cfi_endproc
 179              	.LFE2:
 181              		.global	led1_current_state
 182              		.section	.bss.led1_current_state,"aw",%nobits
 185              	led1_current_state:
 186 0000 00       		.space	1
 187              		.text
 188              	.Letext0:
 189              		.file 2 "D:/Programs/Education/STM32/Tools/Xpack/arm-none-eabi/include/machine/_default_types.h"
 190              		.file 3 "D:/Programs/Education/STM32/Tools/Xpack/arm-none-eabi/include/sys/_stdint.h"
 191              		.file 4 "Core/Inc/init.h"
ARM GAS  C:\Users\Dmitriy\AppData\Local\Temp\ccQsVAxh.s 			page 5


DEFINED SYMBOLS
                            *ABS*:00000000 init.c
C:\Users\Dmitriy\AppData\Local\Temp\ccQsVAxh.s:19     .text.Init_RCC:00000000 $t
C:\Users\Dmitriy\AppData\Local\Temp\ccQsVAxh.s:25     .text.Init_RCC:00000000 Init_RCC
C:\Users\Dmitriy\AppData\Local\Temp\ccQsVAxh.s:44     .text.Init_RCC:0000000c $d
C:\Users\Dmitriy\AppData\Local\Temp\ccQsVAxh.s:49     .text.Init_GPIO:00000000 $t
C:\Users\Dmitriy\AppData\Local\Temp\ccQsVAxh.s:55     .text.Init_GPIO:00000000 Init_GPIO
C:\Users\Dmitriy\AppData\Local\Temp\ccQsVAxh.s:129    .text.Init_GPIO:0000005c $d
C:\Users\Dmitriy\AppData\Local\Temp\ccQsVAxh.s:135    .text.delay:00000000 $t
C:\Users\Dmitriy\AppData\Local\Temp\ccQsVAxh.s:141    .text.delay:00000000 delay
C:\Users\Dmitriy\AppData\Local\Temp\ccQsVAxh.s:185    .bss.led1_current_state:00000000 led1_current_state
C:\Users\Dmitriy\AppData\Local\Temp\ccQsVAxh.s:186    .bss.led1_current_state:00000000 $d

NO UNDEFINED SYMBOLS
