ARM GAS  C:\Users\Dmitriy\AppData\Local\Temp\ccY9aSvS.s 			page 1


   1              		.cpu cortex-m3
   2              		.arch armv7-m
   3              		.fpu softvfp
   4              		.eabi_attribute 20, 1
   5              		.eabi_attribute 21, 1
   6              		.eabi_attribute 23, 3
   7              		.eabi_attribute 24, 1
   8              		.eabi_attribute 25, 1
   9              		.eabi_attribute 26, 1
  10              		.eabi_attribute 30, 1
  11              		.eabi_attribute 34, 1
  12              		.eabi_attribute 18, 4
  13              		.file	"init.c"
  14              		.text
  15              	.Ltext0:
  16              		.cfi_sections	.debug_frame
  17              		.file 1 "Core/Src/init.c"
  18              		.section	.text.Init_RCC,"ax",%progbits
  19              		.align	1
  20              		.global	Init_RCC
  21              		.syntax unified
  22              		.thumb
  23              		.thumb_func
  25              	Init_RCC:
  26              	.LFB0:
   1:Core/Src/init.c **** #include "init.h"
   2:Core/Src/init.c **** 
   3:Core/Src/init.c **** void Init_RCC(void) {
  27              		.loc 1 3 21 view -0
  28              		.cfi_startproc
  29              		@ args = 0, pretend = 0, frame = 0
  30              		@ frame_needed = 0, uses_anonymous_args = 0
  31              		@ link register save eliminated.
   4:Core/Src/init.c ****     // Включение тактирования GPIOA и GPIOC через макросы
   5:Core/Src/init.c ****     RCC->APB2ENR |= (1 << 2) | (1 << 4);
  32              		.loc 1 5 5 view .LVU1
  33              		.loc 1 5 8 is_stmt 0 view .LVU2
  34 0000 024A     		ldr	r2, .L2
  35 0002 9369     		ldr	r3, [r2, #24]
  36              		.loc 1 5 18 view .LVU3
  37 0004 43F01403 		orr	r3, r3, #20
  38 0008 9361     		str	r3, [r2, #24]
   6:Core/Src/init.c **** }
  39              		.loc 1 6 1 view .LVU4
  40 000a 7047     		bx	lr
  41              	.L3:
  42              		.align	2
  43              	.L2:
  44 000c 00100240 		.word	1073876992
  45              		.cfi_endproc
  46              	.LFE0:
  48              		.section	.text.Init_GPIO,"ax",%progbits
  49              		.align	1
  50              		.global	Init_GPIO
  51              		.syntax unified
  52              		.thumb
  53              		.thumb_func
ARM GAS  C:\Users\Dmitriy\AppData\Local\Temp\ccY9aSvS.s 			page 2


  55              	Init_GPIO:
  56              	.LFB1:
   7:Core/Src/init.c **** 
   8:Core/Src/init.c **** void Init_GPIO(void) {
  57              		.loc 1 8 22 is_stmt 1 view -0
  58              		.cfi_startproc
  59              		@ args = 0, pretend = 0, frame = 0
  60              		@ frame_needed = 0, uses_anonymous_args = 0
  61              		@ link register save eliminated.
   9:Core/Src/init.c ****     // PA2 (LED1) - ИНИЦИАЛИЗАЦИЯ ЧЕРЕЗ РЕГИСТРЫ (напрямую)
  10:Core/Src/init.c ****     // Output push-pull 50MHz: MODE=11 (0x3), CNF=00
  11:Core/Src/init.c ****     // PA2 находится в CRL, биты 8-11: MODE2[1:0] и CNF2[1:0]
  12:Core/Src/init.c ****     *(volatile uint32_t*)(0x40010800U + 0x00) = (*(volatile uint32_t*)(0x40010800U + 0x00) & ~(0xF 
  62              		.loc 1 12 5 view .LVU6
  63              		.loc 1 12 50 is_stmt 0 view .LVU7
  64 0000 194A     		ldr	r2, .L5
  65 0002 D2F80038 		ldr	r3, [r2, #2048]
  66              		.loc 1 12 92 view .LVU8
  67 0006 23F47063 		bic	r3, r3, #3840
  68              		.loc 1 12 107 view .LVU9
  69 000a 43F44073 		orr	r3, r3, #768
  70              		.loc 1 12 47 view .LVU10
  71 000e C2F80038 		str	r3, [r2, #2048]
  13:Core/Src/init.c ****     
  14:Core/Src/init.c ****     // PA3, PA5, PA6 как выходы push-pull 50MHz (LED4, LED2, LED3) через макрос
  15:Core/Src/init.c ****     GPIOA->CRL = (GPIOA->CRL & ~(0xF << 12)) | (0x3 << 12); // PA3 - LED4
  72              		.loc 1 15 5 is_stmt 1 view .LVU11
  73              		.loc 1 15 24 is_stmt 0 view .LVU12
  74 0012 164B     		ldr	r3, .L5+4
  75 0014 1A68     		ldr	r2, [r3]
  76              		.loc 1 15 30 view .LVU13
  77 0016 22F47042 		bic	r2, r2, #61440
  78              		.loc 1 15 46 view .LVU14
  79 001a 42F44052 		orr	r2, r2, #12288
  80              		.loc 1 15 16 view .LVU15
  81 001e 1A60     		str	r2, [r3]
  16:Core/Src/init.c ****     GPIOA->CRL = (GPIOA->CRL & ~(0xF << 20)) | (0x3 << 20); // PA5 - LED2  
  82              		.loc 1 16 5 is_stmt 1 view .LVU16
  83              		.loc 1 16 24 is_stmt 0 view .LVU17
  84 0020 1A68     		ldr	r2, [r3]
  85              		.loc 1 16 30 view .LVU18
  86 0022 22F47002 		bic	r2, r2, #15728640
  87              		.loc 1 16 46 view .LVU19
  88 0026 42F44012 		orr	r2, r2, #3145728
  89              		.loc 1 16 16 view .LVU20
  90 002a 1A60     		str	r2, [r3]
  17:Core/Src/init.c ****     GPIOA->CRL = (GPIOA->CRL & ~(0xF << 24)) | (0x3 << 24); // PA6 - LED3
  91              		.loc 1 17 5 is_stmt 1 view .LVU21
  92              		.loc 1 17 24 is_stmt 0 view .LVU22
  93 002c 1A68     		ldr	r2, [r3]
  94              		.loc 1 17 30 view .LVU23
  95 002e 22F07062 		bic	r2, r2, #251658240
  96              		.loc 1 17 46 view .LVU24
  97 0032 42F04072 		orr	r2, r2, #50331648
  98              		.loc 1 17 16 view .LVU25
  99 0036 1A60     		str	r2, [r3]
  18:Core/Src/init.c ****     
ARM GAS  C:\Users\Dmitriy\AppData\Local\Temp\ccY9aSvS.s 			page 3


  19:Core/Src/init.c ****     // PC13 как вход с подтяжкой (Кнопка 1) через макросы
  20:Core/Src/init.c ****     GPIOC->CRH = (GPIOC->CRH & ~(0xF << 20)) | (0x8 << 20);
 100              		.loc 1 20 5 is_stmt 1 view .LVU26
 101              		.loc 1 20 24 is_stmt 0 view .LVU27
 102 0038 03F50063 		add	r3, r3, #2048
 103 003c 5A68     		ldr	r2, [r3, #4]
 104              		.loc 1 20 30 view .LVU28
 105 003e 22F47002 		bic	r2, r2, #15728640
 106              		.loc 1 20 46 view .LVU29
 107 0042 42F40002 		orr	r2, r2, #8388608
 108              		.loc 1 20 16 view .LVU30
 109 0046 5A60     		str	r2, [r3, #4]
  21:Core/Src/init.c ****     GPIOC->ODR |= (1 << 13); // Подтяжка к VCC
 110              		.loc 1 21 5 is_stmt 1 view .LVU31
 111              		.loc 1 21 10 is_stmt 0 view .LVU32
 112 0048 DA68     		ldr	r2, [r3, #12]
 113              		.loc 1 21 16 view .LVU33
 114 004a 42F40052 		orr	r2, r2, #8192
 115 004e DA60     		str	r2, [r3, #12]
  22:Core/Src/init.c ****     
  23:Core/Src/init.c ****     // PC14 как вход с подтяжкой (Кнопка 2) через макросы
  24:Core/Src/init.c ****     GPIOC->CRH = (GPIOC->CRH & ~(0xF << 24)) | (0x8 << 24);
 116              		.loc 1 24 5 is_stmt 1 view .LVU34
 117              		.loc 1 24 24 is_stmt 0 view .LVU35
 118 0050 5A68     		ldr	r2, [r3, #4]
 119              		.loc 1 24 30 view .LVU36
 120 0052 22F07062 		bic	r2, r2, #251658240
 121              		.loc 1 24 46 view .LVU37
 122 0056 42F00062 		orr	r2, r2, #134217728
 123              		.loc 1 24 16 view .LVU38
 124 005a 5A60     		str	r2, [r3, #4]
  25:Core/Src/init.c ****     GPIOC->ODR |= (1 << 14); // Подтяжка к VCC
 125              		.loc 1 25 5 is_stmt 1 view .LVU39
 126              		.loc 1 25 10 is_stmt 0 view .LVU40
 127 005c DA68     		ldr	r2, [r3, #12]
 128              		.loc 1 25 16 view .LVU41
 129 005e 42F48042 		orr	r2, r2, #16384
 130 0062 DA60     		str	r2, [r3, #12]
  26:Core/Src/init.c **** }
 131              		.loc 1 26 1 view .LVU42
 132 0064 7047     		bx	lr
 133              	.L6:
 134 0066 00BF     		.align	2
 135              	.L5:
 136 0068 00000140 		.word	1073807360
 137 006c 00080140 		.word	1073809408
 138              		.cfi_endproc
 139              	.LFE1:
 141              		.section	.text.delay,"ax",%progbits
 142              		.align	1
 143              		.global	delay
 144              		.syntax unified
 145              		.thumb
 146              		.thumb_func
 148              	delay:
 149              	.LVL0:
 150              	.LFB2:
ARM GAS  C:\Users\Dmitriy\AppData\Local\Temp\ccY9aSvS.s 			page 4


  27:Core/Src/init.c **** 
  28:Core/Src/init.c **** void delay(uint32_t count) {
 151              		.loc 1 28 28 is_stmt 1 view -0
 152              		.cfi_startproc
 153              		@ args = 0, pretend = 0, frame = 8
 154              		@ frame_needed = 0, uses_anonymous_args = 0
 155              		@ link register save eliminated.
 156              		.loc 1 28 28 is_stmt 0 view .LVU44
 157 0000 82B0     		sub	sp, sp, #8
 158              	.LCFI0:
 159              		.cfi_def_cfa_offset 8
  29:Core/Src/init.c ****     for(volatile uint32_t i = 0; i < count; i++);
 160              		.loc 1 29 5 is_stmt 1 view .LVU45
 161              	.LBB2:
 162              		.loc 1 29 9 view .LVU46
 163              		.loc 1 29 27 is_stmt 0 view .LVU47
 164 0002 0023     		movs	r3, #0
 165 0004 0193     		str	r3, [sp, #4]
 166              		.loc 1 29 5 view .LVU48
 167 0006 02E0     		b	.L8
 168              	.L9:
 169              		.loc 1 29 46 is_stmt 1 discriminator 3 view .LVU49
 170 0008 019B     		ldr	r3, [sp, #4]
 171 000a 0133     		adds	r3, r3, #1
 172 000c 0193     		str	r3, [sp, #4]
 173              	.L8:
 174              		.loc 1 29 36 discriminator 1 view .LVU50
 175 000e 019B     		ldr	r3, [sp, #4]
 176 0010 8342     		cmp	r3, r0
 177 0012 F9D3     		bcc	.L9
 178              	.LBE2:
  30:Core/Src/init.c **** }...
 179              		.loc 1 30 1 is_stmt 0 view .LVU51
 180 0014 02B0     		add	sp, sp, #8
 181              	.LCFI1:
 182              		.cfi_def_cfa_offset 0
 183              		@ sp needed
 184 0016 7047     		bx	lr
 185              		.cfi_endproc
 186              	.LFE2:
 188              		.text
 189              	.Letext0:
 190              		.file 2 "D:/Programs/Education/STM32/Tools/Xpack/arm-none-eabi/include/machine/_default_types.h"
 191              		.file 3 "D:/Programs/Education/STM32/Tools/Xpack/arm-none-eabi/include/sys/_stdint.h"
 192              		.file 4 "Core/Inc/init.h"
ARM GAS  C:\Users\Dmitriy\AppData\Local\Temp\ccY9aSvS.s 			page 5


DEFINED SYMBOLS
                            *ABS*:00000000 init.c
C:\Users\Dmitriy\AppData\Local\Temp\ccY9aSvS.s:19     .text.Init_RCC:00000000 $t
C:\Users\Dmitriy\AppData\Local\Temp\ccY9aSvS.s:25     .text.Init_RCC:00000000 Init_RCC
C:\Users\Dmitriy\AppData\Local\Temp\ccY9aSvS.s:44     .text.Init_RCC:0000000c $d
C:\Users\Dmitriy\AppData\Local\Temp\ccY9aSvS.s:49     .text.Init_GPIO:00000000 $t
C:\Users\Dmitriy\AppData\Local\Temp\ccY9aSvS.s:55     .text.Init_GPIO:00000000 Init_GPIO
C:\Users\Dmitriy\AppData\Local\Temp\ccY9aSvS.s:136    .text.Init_GPIO:00000068 $d
C:\Users\Dmitriy\AppData\Local\Temp\ccY9aSvS.s:142    .text.delay:00000000 $t
C:\Users\Dmitriy\AppData\Local\Temp\ccY9aSvS.s:148    .text.delay:00000000 delay

NO UNDEFINED SYMBOLS
