ARM GAS  C:\Users\Dmitriy\AppData\Local\Temp\ccKxcQ5S.s 			page 1


   1              		.cpu cortex-m3
   2              		.arch armv7-m
   3              		.fpu softvfp
   4              		.eabi_attribute 20, 1
   5              		.eabi_attribute 21, 1
   6              		.eabi_attribute 23, 3
   7              		.eabi_attribute 24, 1
   8              		.eabi_attribute 25, 1
   9              		.eabi_attribute 26, 1
  10              		.eabi_attribute 30, 1
  11              		.eabi_attribute 34, 1
  12              		.eabi_attribute 18, 4
  13              		.file	"init.c"
  14              		.text
  15              	.Ltext0:
  16              		.cfi_sections	.debug_frame
  17              		.file 1 "Core/Src/init.c"
  18              		.section	.text.Init_RCC,"ax",%progbits
  19              		.align	1
  20              		.global	Init_RCC
  21              		.syntax unified
  22              		.thumb
  23              		.thumb_func
  25              	Init_RCC:
  26              	.LFB0:
   1:Core/Src/init.c **** #include "init.h"
   2:Core/Src/init.c **** 
   3:Core/Src/init.c **** void Init_RCC(void) {
  27              		.loc 1 3 21 view -0
  28              		.cfi_startproc
  29              		@ args = 0, pretend = 0, frame = 0
  30              		@ frame_needed = 0, uses_anonymous_args = 0
  31              		@ link register save eliminated.
   4:Core/Src/init.c ****     // Включение тактирования GPIOA и GPIOC через макросы
   5:Core/Src/init.c ****     RCC->APB2ENR |= (1 << 2) | (1 << 4);
  32              		.loc 1 5 5 view .LVU1
  33              		.loc 1 5 8 is_stmt 0 view .LVU2
  34 0000 024A     		ldr	r2, .L2
  35 0002 9369     		ldr	r3, [r2, #24]
  36              		.loc 1 5 18 view .LVU3
  37 0004 43F01403 		orr	r3, r3, #20
  38 0008 9361     		str	r3, [r2, #24]
   6:Core/Src/init.c **** }
  39              		.loc 1 6 1 view .LVU4
  40 000a 7047     		bx	lr
  41              	.L3:
  42              		.align	2
  43              	.L2:
  44 000c 00100240 		.word	1073876992
  45              		.cfi_endproc
  46              	.LFE0:
  48              		.section	.text.Init_GPIO,"ax",%progbits
  49              		.align	1
  50              		.global	Init_GPIO
  51              		.syntax unified
  52              		.thumb
  53              		.thumb_func
ARM GAS  C:\Users\Dmitriy\AppData\Local\Temp\ccKxcQ5S.s 			page 2


  55              	Init_GPIO:
  56              	.LFB1:
   7:Core/Src/init.c **** 
   8:Core/Src/init.c **** void Init_GPIO(void) {
  57              		.loc 1 8 22 is_stmt 1 view -0
  58              		.cfi_startproc
  59              		@ args = 0, pretend = 0, frame = 0
  60              		@ frame_needed = 0, uses_anonymous_args = 0
  61              		@ link register save eliminated.
   9:Core/Src/init.c ****     // PA5 (LED2) - ПРЯМОЕ ОБРАЩЕНИЕ К ПАМЯТИ (чистый адрес)
  10:Core/Src/init.c ****     // Output push-pull 50MHz: MODE=11 (0x3), CNF=00
  11:Core/Src/init.c ****     *(volatile uint32_t*)(0x40010800U + 0x00) = (*(volatile uint32_t*)(0x40010800U + 0x00) & ~(0xF 
  62              		.loc 1 11 5 view .LVU6
  63              		.loc 1 11 50 is_stmt 0 view .LVU7
  64 0000 164A     		ldr	r2, .L5
  65 0002 D2F80038 		ldr	r3, [r2, #2048]
  66              		.loc 1 11 92 view .LVU8
  67 0006 23F47003 		bic	r3, r3, #15728640
  68              		.loc 1 11 108 view .LVU9
  69 000a 43F44013 		orr	r3, r3, #3145728
  70              		.loc 1 11 47 view .LVU10
  71 000e C2F80038 		str	r3, [r2, #2048]
  12:Core/Src/init.c ****     
  13:Core/Src/init.c ****     // PA6-PA7 (LED3, LED4) - через макросы
  14:Core/Src/init.c ****     GPIOA->CRL = (GPIOA->CRL & ~(0xF << 24)) | (PIN_MODE_OUTPUT_50MHz << 24);
  72              		.loc 1 14 5 is_stmt 1 view .LVU11
  73              		.loc 1 14 24 is_stmt 0 view .LVU12
  74 0012 02F50062 		add	r2, r2, #2048
  75 0016 1368     		ldr	r3, [r2]
  76              		.loc 1 14 30 view .LVU13
  77 0018 23F07063 		bic	r3, r3, #251658240
  78              		.loc 1 14 46 view .LVU14
  79 001c 43F04073 		orr	r3, r3, #50331648
  80              		.loc 1 14 16 view .LVU15
  81 0020 1360     		str	r3, [r2]
  15:Core/Src/init.c ****     GPIOA->CRL = (GPIOA->CRL & ~(0xF << 28)) | (PIN_MODE_OUTPUT_50MHz << 28);
  82              		.loc 1 15 5 is_stmt 1 view .LVU16
  83              		.loc 1 15 24 is_stmt 0 view .LVU17
  84 0022 1368     		ldr	r3, [r2]
  85              		.loc 1 15 30 view .LVU18
  86 0024 23F07043 		bic	r3, r3, #-268435456
  87              		.loc 1 15 46 view .LVU19
  88 0028 43F04053 		orr	r3, r3, #805306368
  89              		.loc 1 15 16 view .LVU20
  90 002c 1360     		str	r3, [r2]
  16:Core/Src/init.c ****     
  17:Core/Src/init.c ****     // Кнопки - через макросы
  18:Core/Src/init.c ****     // PC13 как вход с подтяжкой
  19:Core/Src/init.c ****     GPIOC->CRH = (GPIOC->CRH & ~(0xF << 20)) | ((PIN_MODE_INPUT | CNF_PULL_UPDOWN) << 20);
  91              		.loc 1 19 5 is_stmt 1 view .LVU21
  92              		.loc 1 19 24 is_stmt 0 view .LVU22
  93 002e 0C4B     		ldr	r3, .L5+4
  94 0030 5A68     		ldr	r2, [r3, #4]
  95              		.loc 1 19 30 view .LVU23
  96 0032 22F47002 		bic	r2, r2, #15728640
  97              		.loc 1 19 46 view .LVU24
  98 0036 42F40002 		orr	r2, r2, #8388608
ARM GAS  C:\Users\Dmitriy\AppData\Local\Temp\ccKxcQ5S.s 			page 3


  99              		.loc 1 19 16 view .LVU25
 100 003a 5A60     		str	r2, [r3, #4]
  20:Core/Src/init.c ****     GPIOC->ODR |= (1 << 13);
 101              		.loc 1 20 5 is_stmt 1 view .LVU26
 102              		.loc 1 20 10 is_stmt 0 view .LVU27
 103 003c DA68     		ldr	r2, [r3, #12]
 104              		.loc 1 20 16 view .LVU28
 105 003e 42F40052 		orr	r2, r2, #8192
 106 0042 DA60     		str	r2, [r3, #12]
  21:Core/Src/init.c ****     
  22:Core/Src/init.c ****     // PC14 как вход с подтяжкой
  23:Core/Src/init.c ****     GPIOC->CRH = (GPIOC->CRH & ~(0xF << 24)) | ((PIN_MODE_INPUT | CNF_PULL_UPDOWN) << 24);
 107              		.loc 1 23 5 is_stmt 1 view .LVU29
 108              		.loc 1 23 24 is_stmt 0 view .LVU30
 109 0044 5A68     		ldr	r2, [r3, #4]
 110              		.loc 1 23 30 view .LVU31
 111 0046 22F07062 		bic	r2, r2, #251658240
 112              		.loc 1 23 46 view .LVU32
 113 004a 42F00062 		orr	r2, r2, #134217728
 114              		.loc 1 23 16 view .LVU33
 115 004e 5A60     		str	r2, [r3, #4]
  24:Core/Src/init.c ****     GPIOC->ODR |= (1 << 14);
 116              		.loc 1 24 5 is_stmt 1 view .LVU34
 117              		.loc 1 24 10 is_stmt 0 view .LVU35
 118 0050 DA68     		ldr	r2, [r3, #12]
 119              		.loc 1 24 16 view .LVU36
 120 0052 42F48042 		orr	r2, r2, #16384
 121 0056 DA60     		str	r2, [r3, #12]
  25:Core/Src/init.c **** }...
 122              		.loc 1 25 1 view .LVU37
 123 0058 7047     		bx	lr
 124              	.L6:
 125 005a 00BF     		.align	2
 126              	.L5:
 127 005c 00000140 		.word	1073807360
 128 0060 00100140 		.word	1073811456
 129              		.cfi_endproc
 130              	.LFE1:
 132              		.text
 133              	.Letext0:
 134              		.file 2 "D:/Programs/Education/STM32/Tools/Xpack/arm-none-eabi/include/machine/_default_types.h"
 135              		.file 3 "D:/Programs/Education/STM32/Tools/Xpack/arm-none-eabi/include/sys/_stdint.h"
 136              		.file 4 "Core/Inc/init.h"
ARM GAS  C:\Users\Dmitriy\AppData\Local\Temp\ccKxcQ5S.s 			page 4


DEFINED SYMBOLS
                            *ABS*:00000000 init.c
C:\Users\Dmitriy\AppData\Local\Temp\ccKxcQ5S.s:19     .text.Init_RCC:00000000 $t
C:\Users\Dmitriy\AppData\Local\Temp\ccKxcQ5S.s:25     .text.Init_RCC:00000000 Init_RCC
C:\Users\Dmitriy\AppData\Local\Temp\ccKxcQ5S.s:44     .text.Init_RCC:0000000c $d
C:\Users\Dmitriy\AppData\Local\Temp\ccKxcQ5S.s:49     .text.Init_GPIO:00000000 $t
C:\Users\Dmitriy\AppData\Local\Temp\ccKxcQ5S.s:55     .text.Init_GPIO:00000000 Init_GPIO
C:\Users\Dmitriy\AppData\Local\Temp\ccKxcQ5S.s:127    .text.Init_GPIO:0000005c $d

NO UNDEFINED SYMBOLS
